target datalayout = "e-m:e-p270:32:32-p271:32:32-p272:64:64-i64:64-i128:128-f80:128-n8:16:32:64-S128"
target triple = "x86_64-pc-linux-gnu"

%struct.quic_lcidm_st = type { ptr, ptr, ptr, i64 }
%struct.quic_lcid_st = type { %struct.quic_conn_id_st, i64, ptr, i8 }
%struct.quic_conn_id_st = type { i8, [20 x i8] }

; Function Attrs: inlinehint nounwind uwtable
define internal ptr @lh_QUIC_LCID_retrieve(ptr noundef %0, ptr noundef %1) #3 {
  %3 = alloca ptr, align 8
  %4 = alloca ptr, align 8
  store ptr %0, ptr %3, align 8, !tbaa !30
  store ptr %1, ptr %4, align 8, !tbaa !20
  %5 = load ptr, ptr %3, align 8, !tbaa !30
  %6 = load ptr, ptr %4, align 8, !tbaa !20
  %7 = call ptr @OPENSSL_LH_retrieve(ptr noundef %5, ptr noundef %6)
  ret ptr %7
}

; Function Attrs: nounwind uwtable
define internal ptr @lcidm_get0_lcid(ptr noundef %0, ptr noundef %1) #0 {
  %3 = alloca ptr, align 8
  %4 = alloca ptr, align 8
  %5 = alloca ptr, align 8
  %6 = alloca %struct.quic_lcid_st, align 8
  %7 = alloca i32, align 4
  store ptr %0, ptr %4, align 8, !tbaa !10
  store ptr %1, ptr %5, align 8, !tbaa !33
  call void @llvm.lifetime.start.p0(i64 48, ptr %6) #7
  %8 = getelementptr inbounds nuw %struct.quic_lcid_st, ptr %6, i32 0, i32 0
  %9 = load ptr, ptr %5, align 8, !tbaa !33
  call void @llvm.memcpy.p0.p0.i64(ptr align 8 %8, ptr align 1 %9, i64 21, i1 false), !tbaa.struct !36
  %10 = getelementptr inbounds nuw %struct.quic_lcid_st, ptr %6, i32 0, i32 0
  %11 = getelementptr inbounds nuw %struct.quic_conn_id_st, ptr %10, i32 0, i32 0
  %12 = load i8, ptr %11, align 8, !tbaa !22
  %13 = zext i8 %12 to i32
  %14 = icmp sgt i32 %13, 20
  br i1 %14, label %15, label %16

15:                                               ; preds = %2
  store ptr null, ptr %3, align 8
  store i32 1, ptr %7, align 4
  br label %21

16:                                               ; preds = %2
  %17 = load ptr, ptr %4, align 8, !tbaa !10
  %18 = getelementptr inbounds nuw %struct.quic_lcidm_st, ptr %17, i32 0, i32 1
  %19 = load ptr, ptr %18, align 8, !tbaa !12
  %20 = call ptr @lh_QUIC_LCID_retrieve(ptr noundef %19, ptr noundef %6)
  store ptr %20, ptr %3, align 8
  store i32 1, ptr %7, align 4
  br label %21

21:                                               ; preds = %16, %15
  call void @llvm.lifetime.end.p0(i64 48, ptr %6) #7
  %22 = load ptr, ptr %3, align 8
  ret ptr %22
}

; Function Attrs: nounwind uwtable
define internal i32 @lcidm_generate_cid(ptr noundef %0, ptr noundef %1) #0 {
  %3 = alloca ptr, align 8
  %4 = alloca ptr, align 8
  store ptr %0, ptr %3, align 8, !tbaa !10
  store ptr %1, ptr %4, align 8, !tbaa !33
  %5 = load ptr, ptr %3, align 8, !tbaa !10
  %6 = getelementptr inbounds nuw %struct.quic_lcidm_st, ptr %5, i32 0, i32 0
  %7 = load ptr, ptr %6, align 8, !tbaa !17
  %8 = load ptr, ptr %3, align 8, !tbaa !10
  %9 = getelementptr inbounds nuw %struct.quic_lcidm_st, ptr %8, i32 0, i32 3
  %10 = load i64, ptr %9, align 8, !tbaa !18
  %11 = load ptr, ptr %4, align 8, !tbaa !33
  %12 = call i32 @ossl_quic_gen_rand_conn_id(ptr noundef %7, i64 noundef %10, ptr noundef %11)
  ret i32 %12
}

; Function Attrs: nounwind uwtable
define i32 @ossl_quic_lcidm_get_unused_cid(ptr noundef %0, ptr noundef %1) #0 {
  %3 = alloca i32, align 4
  %4 = alloca ptr, align 8
  %5 = alloca ptr, align 8
  %6 = alloca i32, align 4
  %7 = alloca i32, align 4
  store ptr %0, ptr %4, align 8, !tbaa !10
  store ptr %1, ptr %5, align 8, !tbaa !33
  call void @llvm.lifetime.start.p0(i64 4, ptr %6) #7
  store i32 0, ptr %6, align 4, !tbaa !42
  br label %8

8:                                                ; preds = %23, %2
  %9 = load i32, ptr %6, align 4, !tbaa !42
  %10 = icmp slt i32 %9, 10
  br i1 %10, label %11, label %26

11:                                               ; preds = %8
  %12 = load ptr, ptr %4, align 8, !tbaa !10
  %13 = load ptr, ptr %5, align 8, !tbaa !33
  %14 = call i32 @lcidm_generate_cid(ptr noundef %12, ptr noundef %13)
  %15 = icmp ne i32 %14, 0
  br i1 %15, label %16, label %22

16:                                               ; preds = %11
  %17 = load ptr, ptr %4, align 8, !tbaa !10
  %18 = load ptr, ptr %5, align 8, !tbaa !33
  %19 = call ptr @lcidm_get0_lcid(ptr noundef %17, ptr noundef %18)
  %20 = icmp eq ptr %19, null
  br i1 %20, label %21, label %22

21:                                               ; preds = %16
  store i32 1, ptr %3, align 4
  store i32 1, ptr %7, align 4
  br label %27

22:                                               ; preds = %16, %11
  br label %23

23:                                               ; preds = %22
  %24 = load i32, ptr %6, align 4, !tbaa !42
  %25 = add nsw i32 %24, 1
  store i32 %25, ptr %6, align 4, !tbaa !42
  br label %8, !llvm.loop !62

26:                                               ; preds = %8
  store i32 0, ptr %3, align 4
  store i32 1, ptr %7, align 4
  br label %27

27:                                               ; preds = %26, %21
  call void @llvm.lifetime.end.p0(i64 4, ptr %6) #7
  %28 = load i32, ptr %3, align 4
  ret i32 %28
}