; Function Attrs: nounwind uwtable
define range(i32 0, 2) i32 @ossl_quic_lcidm_get_unused_cid(ptr noundef readonly captures(none) %0, ptr noundef %1) local_unnamed_addr #0 {
  %3 = alloca %struct.quic_lcid_st, align 8
  %4 = getelementptr i8, ptr %0, i64 24
  %5 = getelementptr inbounds nuw i8, ptr %0, i64 8
  br label %6

6:                                                ; preds = %2, %14
  %.09 = phi i32 [ 0, %2 ], [ %15, %14 ]
  %.val = load ptr, ptr %0, align 8, !tbaa !13
  %.val7 = load i64, ptr %4, align 8, !tbaa !14
  %7 = call i32 @ossl_quic_gen_rand_conn_id(ptr noundef %.val, i64 noundef %.val7, ptr noundef %1) #11
  %.not = icmp eq i32 %7, 0
  br i1 %.not, label %14, label %8

8:                                                ; preds = %6
  call void @llvm.lifetime.start.p0(i64 48, ptr nonnull %3) #11
  call void @llvm.memcpy.p0.p0.i64(ptr noundef nonnull align 8 dereferenceable(21) %3, ptr noundef nonnull readonly align 1 dereferenceable(21) %1, i64 21, i1 false), !tbaa.struct !29
  %9 = load i8, ptr %3, align 8, !tbaa !15
  %10 = icmp ugt i8 %9, 20
  br i1 %10, label %lcidm_get0_lcid.exit.thread, label %lcidm_get0_lcid.exit

lcidm_get0_lcid.exit.thread:                      ; preds = %8
  call void @llvm.lifetime.end.p0(i64 48, ptr nonnull %3) #11
  br label %.loopexit

lcidm_get0_lcid.exit:                             ; preds = %8
  %11 = load ptr, ptr %5, align 8, !tbaa !3
  %12 = call ptr @OPENSSL_LH_retrieve(ptr noundef %11, ptr noundef nonnull %3) #11
  call void @llvm.lifetime.end.p0(i64 48, ptr nonnull %3) #11
  %13 = icmp eq ptr %12, null
  br i1 %13, label %.loopexit, label %14

14:                                               ; preds = %6, %lcidm_get0_lcid.exit
  %15 = add nuw nsw i32 %.09, 1
  %exitcond.not = icmp eq i32 %15, 10
  br i1 %exitcond.not, label %.loopexit, label %6, !llvm.loop !42

.loopexit:                                        ; preds = %14, %lcidm_get0_lcid.exit, %lcidm_get0_lcid.exit.thread
  %.06 = phi i32 [ 1, %lcidm_get0_lcid.exit.thread ], [ 0, %14 ], [ 1, %lcidm_get0_lcid.exit ]
  ret i32 %.06
}